; Function Attrs: mustprogress nounwind uwtable
define hidden void @_ZN6hermes3sem17SemanticValidator5visitEPNS_6ESTree24ClassPrivatePropertyNodeE(ptr noundef nonnull align 8 dereferenceable(168) %this, ptr noundef %node) local_unnamed_addr #0 align 2 {
entry:
  %ref.tmp = alloca %"class.llvh::Twine", align 8
  %compile_ = getelementptr inbounds nuw i8, ptr %this, i64 161
  %0 = load i8, ptr %compile_, align 1
  %tobool = trunc i8 %0 to i1
  br i1 %tobool, label %if.then, label %if.end

if.then:                                          ; preds = %entry
  %sm_ = getelementptr inbounds nuw i8, ptr %this, i64 8
  %1 = load ptr, ptr %sm_, align 8
  %sourceRange_.i = getelementptr inbounds nuw i8, ptr %node, i64 24
  %retval.sroa.0.0.copyload.i = load ptr, ptr %sourceRange_.i, align 8
  %retval.sroa.2.0.sourceRange_.sroa_idx.i = getelementptr inbounds nuw i8, ptr %node, i64 32
  %retval.sroa.2.0.copyload.i = load ptr, ptr %retval.sroa.2.0.sourceRange_.sroa_idx.i, align 8
  %LHSKind.i = getelementptr inbounds nuw i8, ptr %ref.tmp, i64 16
  %RHSKind.i = getelementptr inbounds nuw i8, ptr %ref.tmp, i64 17
  store i8 1, ptr %RHSKind.i, align 1
  store ptr @.str.45, ptr %ref.tmp, align 8
  store i8 3, ptr %LHSKind.i, align 8
  call void @_ZN6hermes18SourceErrorManager7messageENS0_8DiagKindEN4llvh7SMRangeERKNS2_5TwineENS_9SubsystemE(ptr noundef nonnull align 8 dereferenceable(464) %1, i32 noundef 0, ptr %retval.sroa.0.0.copyload.i, ptr %retval.sroa.2.0.copyload.i, ptr noundef nonnull align 8 dereferenceable(18) %ref.tmp, i32 noundef 0) #21
  br label %if.end

if.end:                                           ; preds = %if.then, %entry
  %_key.i = getelementptr inbounds nuw i8, ptr %node, i64 48
  %2 = load ptr, ptr %_key.i, align 8
  %call.i = call { ptr, i8 } @_ZN6hermes6ESTree24RecursiveVisitorDispatchINS_3sem17SemanticValidatorELb1EE5visitERS3_PNS0_4NodeES7_(ptr noundef nonnull align 8 dereferenceable(168) %this, ptr noundef %2, ptr noundef %node)
  %_value.i = getelementptr inbounds nuw i8, ptr %node, i64 56
  %3 = load ptr, ptr %_value.i, align 8
  %call1.i = call { ptr, i8 } @_ZN6hermes6ESTree24RecursiveVisitorDispatchINS_3sem17SemanticValidatorELb1EE5visitERS3_PNS0_4NodeES7_(ptr noundef nonnull align 8 dereferenceable(168) %this, ptr noundef %3, ptr noundef %node)
  %_variance.i = getelementptr inbounds nuw i8, ptr %node, i64 72
  %4 = load ptr, ptr %_variance.i, align 8
  %call7.i = call { ptr, i8 } @_ZN6hermes6ESTree24RecursiveVisitorDispatchINS_3sem17SemanticValidatorELb1EE5visitERS3_PNS0_4NodeES7_(ptr noundef nonnull align 8 dereferenceable(168) %this, ptr noundef %4, ptr noundef %node)
  %_typeAnnotation.i = getelementptr inbounds nuw i8, ptr %node, i64 80
  %5 = load ptr, ptr %_typeAnnotation.i, align 8
  %call9.i = call { ptr, i8 } @_ZN6hermes6ESTree24RecursiveVisitorDispatchINS_3sem17SemanticValidatorELb1EE5visitERS3_PNS0_4NodeES7_(ptr noundef nonnull align 8 dereferenceable(168) %this, ptr noundef %5, ptr noundef %node)
  %_tsModifiers.i = getelementptr inbounds nuw i8, ptr %node, i64 88
  %6 = load ptr, ptr %_tsModifiers.i, align 8
  %call11.i = call { ptr, i8 } @_ZN6hermes6ESTree24RecursiveVisitorDispatchINS_3sem17SemanticValidatorELb1EE5visitERS3_PNS0_4NodeES7_(ptr noundef nonnull align 8 dereferenceable(168) %this, ptr noundef %6, ptr noundef %node)
  ret void
}